; Function Attrs: nounwind uwtable
define i32 @SeqInStream_ReadByte(ptr noundef %0, ptr noundef %1) local_unnamed_addr #0 {
  %3 = alloca i64, align 8
  call void @llvm.lifetime.start.p0(i64 8, ptr nonnull %3) #7
  store i64 1, ptr %3, align 8, !tbaa !3
  %4 = load ptr, ptr %0, align 8, !tbaa !7
  %5 = call i32 %4(ptr noundef nonnull %0, ptr noundef %1, ptr noundef nonnull %3) #7
  %.not = icmp eq i32 %5, 0
  %6 = load i64, ptr %3, align 8
  %7 = icmp eq i64 %6, 1
  %8 = select i1 %7, i32 0, i32 6
  %.1 = select i1 %.not, i32 %8, i32 %5
  call void @llvm.lifetime.end.p0(i64 8, ptr nonnull %3) #7
  ret i32 %.1
}